target datalayout = "e-m:e-p270:32:32-p271:32:32-p272:64:64-i64:64-i128:128-f80:128-n8:16:32:64-S128"
target triple = "x86_64-pc-linux-gnu"

%struct.RClass_and_rb_classext_t = type { %struct.RClass, %struct.rb_classext_struct }
%struct.RClass = type { %struct.RBasic, i64, ptr }
%struct.RBasic = type { i64, i64 }
%struct.rb_classext_struct = type { ptr, ptr, ptr, ptr, ptr, i64, ptr, ptr, ptr, ptr, i64, i64, %union.anon, i64, i32, i8, i8, i64 }
%union.anon = type { %struct.anon }
%struct.anon = type { ptr }
%struct.rb_subclass_entry = type { i64, ptr, ptr }

; Function Attrs: nounwind sspstrong uwtable
define hidden void @rb_class_remove_from_module_subclasses(i64 noundef %0) #0 {
  %2 = alloca i64, align 8
  %3 = alloca ptr, align 8
  %4 = alloca ptr, align 8
  %5 = alloca ptr, align 8
  store i64 %0, ptr %2, align 8, !tbaa !7
  call void @llvm.lifetime.start.p0(i64 8, ptr %3) #23
  %6 = load i64, ptr %2, align 8, !tbaa !7
  %7 = inttoptr i64 %6 to ptr
  %8 = getelementptr inbounds nuw %struct.RClass_and_rb_classext_t, ptr %7, i32 0, i32 1
  %9 = getelementptr inbounds nuw %struct.rb_classext_struct, ptr %8, i32 0, i32 9
  %10 = load ptr, ptr %9, align 8, !tbaa !28
  store ptr %10, ptr %3, align 8, !tbaa !11
  %11 = load ptr, ptr %3, align 8, !tbaa !11
  %12 = icmp ne ptr %11, null
  br i1 %12, label %13, label %35

13:                                               ; preds = %1
  call void @llvm.lifetime.start.p0(i64 8, ptr %4) #23
  %14 = load ptr, ptr %3, align 8, !tbaa !11
  %15 = getelementptr inbounds nuw %struct.rb_subclass_entry, ptr %14, i32 0, i32 2
  %16 = load ptr, ptr %15, align 8, !tbaa !27
  store ptr %16, ptr %4, align 8, !tbaa !11
  call void @llvm.lifetime.start.p0(i64 8, ptr %5) #23
  %17 = load ptr, ptr %3, align 8, !tbaa !11
  %18 = getelementptr inbounds nuw %struct.rb_subclass_entry, ptr %17, i32 0, i32 1
  %19 = load ptr, ptr %18, align 8, !tbaa !26
  store ptr %19, ptr %5, align 8, !tbaa !11
  %20 = load ptr, ptr %4, align 8, !tbaa !11
  %21 = icmp ne ptr %20, null
  br i1 %21, label %22, label %26

22:                                               ; preds = %13
  %23 = load ptr, ptr %5, align 8, !tbaa !11
  %24 = load ptr, ptr %4, align 8, !tbaa !11
  %25 = getelementptr inbounds nuw %struct.rb_subclass_entry, ptr %24, i32 0, i32 1
  store ptr %23, ptr %25, align 8, !tbaa !26
  br label %26

26:                                               ; preds = %22, %13
  %27 = load ptr, ptr %5, align 8, !tbaa !11
  %28 = icmp ne ptr %27, null
  br i1 %28, label %29, label %33

29:                                               ; preds = %26
  %30 = load ptr, ptr %4, align 8, !tbaa !11
  %31 = load ptr, ptr %5, align 8, !tbaa !11
  %32 = getelementptr inbounds nuw %struct.rb_subclass_entry, ptr %31, i32 0, i32 2
  store ptr %30, ptr %32, align 8, !tbaa !27
  br label %33

33:                                               ; preds = %29, %26
  %34 = load ptr, ptr %3, align 8, !tbaa !11
  call void @ruby_xfree(ptr noundef %34)
  call void @llvm.lifetime.end.p0(i64 8, ptr %5) #23
  call void @llvm.lifetime.end.p0(i64 8, ptr %4) #23
  br label %35

35:                                               ; preds = %33, %1
  %36 = load i64, ptr %2, align 8, !tbaa !7
  %37 = inttoptr i64 %36 to ptr
  %38 = getelementptr inbounds nuw %struct.RClass_and_rb_classext_t, ptr %37, i32 0, i32 1
  %39 = getelementptr inbounds nuw %struct.rb_classext_struct, ptr %38, i32 0, i32 9
  store ptr null, ptr %39, align 8, !tbaa !28
  call void @llvm.lifetime.end.p0(i64 8, ptr %3) #23
  ret void
}